target datalayout = "e-m:e-p270:32:32-p271:32:32-p272:64:64-i64:64-i128:128-f80:128-n8:16:32:64-S128"
target triple = "x86_64-pc-linux-gnu"

%"struct.rocksdb::ThreadData" = type { %"class.std::vector.0", ptr, ptr, ptr }
%"class.std::vector.0" = type { %"struct.std::_Vector_base.1" }
%"struct.std::_Vector_base.1" = type { %"struct.std::_Vector_base<rocksdb::Entry, std::allocator<rocksdb::Entry>>::_Vector_impl" }
%"struct.std::_Vector_base<rocksdb::Entry, std::allocator<rocksdb::Entry>>::_Vector_impl" = type { %"struct.std::_Vector_base<rocksdb::Entry, std::allocator<rocksdb::Entry>>::_Vector_impl_data" }
%"struct.std::_Vector_base<rocksdb::Entry, std::allocator<rocksdb::Entry>>::_Vector_impl_data" = type { ptr, ptr, ptr }
%"class.rocksdb::MutexLock" = type { ptr }
%"struct.rocksdb::Entry" = type { %"struct.std::atomic" }
%"struct.std::atomic" = type { %"struct.std::__atomic_base" }
%"struct.std::__atomic_base" = type { ptr }

; Function Attrs: alwaysinline mustprogress nounwind uwtable
define linkonce_odr noundef ptr @_ZNSt13__atomic_baseIPvE8exchangeES0_St12memory_order(ptr noundef nonnull align 8 dereferenceable(8) %0, ptr noundef %1, i32 noundef %2) #15 comdat align 2 {
  %4 = alloca ptr, align 8
  %5 = alloca ptr, align 8
  %6 = alloca i32, align 4
  %7 = alloca ptr, align 8
  %8 = alloca ptr, align 8
  store ptr %0, ptr %4, align 8, !tbaa !167
  store ptr %1, ptr %5, align 8, !tbaa !10
  store i32 %2, ptr %6, align 4, !tbaa !57
  %9 = load ptr, ptr %4, align 8
  %10 = getelementptr inbounds nuw %"struct.std::__atomic_base", ptr %9, i32 0, i32 0
  %11 = load i32, ptr %6, align 4, !tbaa !57
  %12 = load ptr, ptr %5, align 8, !tbaa !10
  store ptr %12, ptr %7, align 8, !tbaa !10
  switch i32 %11, label %13 [
    i32 1, label %16
    i32 2, label %16
    i32 3, label %19
    i32 4, label %22
    i32 5, label %25
  ]

13:                                               ; preds = %3
  %14 = load i64, ptr %7, align 8
  %15 = atomicrmw xchg ptr %10, i64 %14 monotonic, align 8
  store i64 %15, ptr %8, align 8
  br label %28

16:                                               ; preds = %3, %3
  %17 = load i64, ptr %7, align 8
  %18 = atomicrmw xchg ptr %10, i64 %17 acquire, align 8
  store i64 %18, ptr %8, align 8
  br label %28

19:                                               ; preds = %3
  %20 = load i64, ptr %7, align 8
  %21 = atomicrmw xchg ptr %10, i64 %20 release, align 8
  store i64 %21, ptr %8, align 8
  br label %28

22:                                               ; preds = %3
  %23 = load i64, ptr %7, align 8
  %24 = atomicrmw xchg ptr %10, i64 %23 acq_rel, align 8
  store i64 %24, ptr %8, align 8
  br label %28

25:                                               ; preds = %3
  %26 = load i64, ptr %7, align 8
  %27 = atomicrmw xchg ptr %10, i64 %26 seq_cst, align 8
  store i64 %27, ptr %8, align 8
  br label %28

28:                                               ; preds = %25, %22, %19, %16, %13
  %29 = load ptr, ptr %8, align 8, !tbaa !10
  ret ptr %29
}

; Function Attrs: mustprogress nounwind uwtable
define linkonce_odr noundef ptr @_ZNSt6atomicIPvE8exchangeES0_St12memory_order(ptr noundef nonnull align 8 dereferenceable(8) %0, ptr noundef %1, i32 noundef %2) #6 comdat align 2 {
  %4 = alloca ptr, align 8
  %5 = alloca ptr, align 8
  %6 = alloca i32, align 4
  store ptr %0, ptr %4, align 8, !tbaa !55
  store ptr %1, ptr %5, align 8, !tbaa !10
  store i32 %2, ptr %6, align 4, !tbaa !57
  %7 = load ptr, ptr %4, align 8
  %8 = getelementptr inbounds nuw %"struct.std::atomic", ptr %7, i32 0, i32 0
  %9 = load ptr, ptr %5, align 8, !tbaa !10
  %10 = load i32, ptr %6, align 4, !tbaa !57
  %11 = call noundef ptr @_ZNSt13__atomic_baseIPvE8exchangeES0_St12memory_order(ptr noundef nonnull align 8 dereferenceable(8) %8, ptr noundef %9, i32 noundef %10) #1
  ret ptr %11
}

; Function Attrs: mustprogress nounwind uwtable
define linkonce_odr noundef nonnull align 8 dereferenceable(8) ptr @_ZNSt6vectorIN7rocksdb5EntryESaIS1_EEixEm(ptr noundef nonnull align 8 dereferenceable(24) %0, i64 noundef %1) #6 comdat align 2 {
  %3 = alloca ptr, align 8
  %4 = alloca i64, align 8
  store ptr %0, ptr %3, align 8, !tbaa !40
  store i64 %1, ptr %4, align 8, !tbaa !78
  %5 = load ptr, ptr %3, align 8
  %6 = getelementptr inbounds nuw %"struct.std::_Vector_base.1", ptr %5, i32 0, i32 0
  %7 = getelementptr inbounds nuw %"struct.std::_Vector_base<rocksdb::Entry, std::allocator<rocksdb::Entry>>::_Vector_impl_data", ptr %6, i32 0, i32 0
  %8 = load ptr, ptr %7, align 8, !tbaa !77
  %9 = load i64, ptr %4, align 8, !tbaa !78
  %10 = getelementptr inbounds nuw %"struct.rocksdb::Entry", ptr %8, i64 %9
  ret ptr %10
}

; Function Attrs: mustprogress nounwind uwtable
define linkonce_odr void @_ZN7rocksdb9MutexLockD2Ev(ptr noundef nonnull align 8 dereferenceable(8) %0) unnamed_addr #6 comdat align 2 personality ptr @__gxx_personality_v0 {
  %2 = alloca ptr, align 8
  store ptr %0, ptr %2, align 8, !tbaa !43
  %3 = load ptr, ptr %2, align 8
  %4 = getelementptr inbounds nuw %"class.rocksdb::MutexLock", ptr %3, i32 0, i32 0
  %5 = load ptr, ptr %4, align 8, !tbaa !47
  invoke void @_ZN7rocksdb4port5Mutex6UnlockEv(ptr noundef nonnull align 8 dereferenceable(40) %5)
          to label %6 unwind label %7

6:                                                ; preds = %1
  ret void

7:                                                ; preds = %1
  %8 = landingpad { ptr, i32 }
          catch ptr null
  %9 = extractvalue { ptr, i32 } %8, 0
  call void @__clang_call_terminate(ptr %9) #21
  unreachable
}

; Function Attrs: mustprogress uwtable
define linkonce_odr void @_ZN7rocksdb9MutexLockC2EPNS_4port5MutexE(ptr noundef nonnull align 8 dereferenceable(8) %0, ptr noundef %1) unnamed_addr #0 comdat align 2 {
  %3 = alloca ptr, align 8
  %4 = alloca ptr, align 8
  store ptr %0, ptr %3, align 8, !tbaa !43
  store ptr %1, ptr %4, align 8, !tbaa !45
  %5 = load ptr, ptr %3, align 8
  %6 = getelementptr inbounds nuw %"class.rocksdb::MutexLock", ptr %5, i32 0, i32 0
  %7 = load ptr, ptr %4, align 8, !tbaa !45
  store ptr %7, ptr %6, align 8, !tbaa !47
  %8 = getelementptr inbounds nuw %"class.rocksdb::MutexLock", ptr %5, i32 0, i32 0
  %9 = load ptr, ptr %8, align 8, !tbaa !47
  call void @_ZN7rocksdb4port5Mutex4LockEv(ptr noundef nonnull align 8 dereferenceable(40) %9)
  ret void
}

; Function Attrs: mustprogress nounwind uwtable
define linkonce_odr noundef i64 @_ZNKSt6vectorIN7rocksdb5EntryESaIS1_EE4sizeEv(ptr noundef nonnull align 8 dereferenceable(24) %0) #6 comdat align 2 {
  %2 = alloca ptr, align 8
  store ptr %0, ptr %2, align 8, !tbaa !40
  %3 = load ptr, ptr %2, align 8
  %4 = getelementptr inbounds nuw %"struct.std::_Vector_base.1", ptr %3, i32 0, i32 0
  %5 = getelementptr inbounds nuw %"struct.std::_Vector_base<rocksdb::Entry, std::allocator<rocksdb::Entry>>::_Vector_impl_data", ptr %4, i32 0, i32 1
  %6 = load ptr, ptr %5, align 8, !tbaa !76
  %7 = getelementptr inbounds nuw %"struct.std::_Vector_base.1", ptr %3, i32 0, i32 0
  %8 = getelementptr inbounds nuw %"struct.std::_Vector_base<rocksdb::Entry, std::allocator<rocksdb::Entry>>::_Vector_impl_data", ptr %7, i32 0, i32 0
  %9 = load ptr, ptr %8, align 8, !tbaa !77
  %10 = ptrtoint ptr %6 to i64
  %11 = ptrtoint ptr %9 to i64
  %12 = sub i64 %10, %11
  %13 = sdiv exact i64 %12, 8
  ret i64 %13
}

; Function Attrs: mustprogress uwtable
define noundef ptr @_ZN7rocksdb14ThreadLocalPtr10StaticMeta4SwapEjPv(ptr noundef nonnull align 8 dereferenceable(228) %0, i32 noundef %1, ptr noundef %2) #0 align 2 personality ptr @__gxx_personality_v0 {
  %4 = alloca ptr, align 8
  %5 = alloca i32, align 4
  %6 = alloca ptr, align 8
  %7 = alloca ptr, align 8
  %8 = alloca %"class.rocksdb::MutexLock", align 8
  %9 = alloca ptr, align 8
  %10 = alloca i32, align 4
  store ptr %0, ptr %4, align 8, !tbaa !5
  store i32 %1, ptr %5, align 4, !tbaa !39
  store ptr %2, ptr %6, align 8, !tbaa !10
  call void @llvm.lifetime.start.p0(i64 8, ptr %7) #1
  %11 = call noundef ptr @_ZN7rocksdb14ThreadLocalPtr10StaticMeta14GetThreadLocalEv()
  store ptr %11, ptr %7, align 8, !tbaa !11
  %12 = load i32, ptr %5, align 4, !tbaa !39
  %13 = zext i32 %12 to i64
  %14 = load ptr, ptr %7, align 8, !tbaa !11
  %15 = getelementptr inbounds nuw %"struct.rocksdb::ThreadData", ptr %14, i32 0, i32 0
  %16 = call noundef i64 @_ZNKSt6vectorIN7rocksdb5EntryESaIS1_EE4sizeEv(ptr noundef nonnull align 8 dereferenceable(24) %15) #1
  %17 = icmp uge i64 %13, %16
  %18 = zext i1 %17 to i64
  %19 = call i64 @llvm.expect.i64(i64 %18, i64 0)
  %20 = icmp ne i64 %19, 0
  br i1 %20, label %21, label %33

21:                                               ; preds = %3
  call void @llvm.lifetime.start.p0(i64 8, ptr %8) #1
  %22 = call noundef ptr @_ZN7rocksdb14ThreadLocalPtr10StaticMeta5MutexEv()
  call void @_ZN7rocksdb9MutexLockC2EPNS_4port5MutexE(ptr noundef nonnull align 8 dereferenceable(8) %8, ptr noundef %22)
  %23 = load ptr, ptr %7, align 8, !tbaa !11
  %24 = getelementptr inbounds nuw %"struct.rocksdb::ThreadData", ptr %23, i32 0, i32 0
  %25 = load i32, ptr %5, align 4, !tbaa !39
  %26 = add i32 %25, 1
  %27 = zext i32 %26 to i64
  invoke void @_ZNSt6vectorIN7rocksdb5EntryESaIS1_EE6resizeEm(ptr noundef nonnull align 8 dereferenceable(24) %24, i64 noundef %27)
          to label %28 unwind label %29

28:                                               ; preds = %21
  call void @_ZN7rocksdb9MutexLockD2Ev(ptr noundef nonnull align 8 dereferenceable(8) %8) #1
  call void @llvm.lifetime.end.p0(i64 8, ptr %8) #1
  br label %33

29:                                               ; preds = %21
  %30 = landingpad { ptr, i32 }
          cleanup
  %31 = extractvalue { ptr, i32 } %30, 0
  store ptr %31, ptr %9, align 8
  %32 = extractvalue { ptr, i32 } %30, 1
  store i32 %32, ptr %10, align 4
  call void @_ZN7rocksdb9MutexLockD2Ev(ptr noundef nonnull align 8 dereferenceable(8) %8) #1
  call void @llvm.lifetime.end.p0(i64 8, ptr %8) #1
  call void @llvm.lifetime.end.p0(i64 8, ptr %7) #1
  br label %42

33:                                               ; preds = %28, %3
  %34 = load ptr, ptr %7, align 8, !tbaa !11
  %35 = getelementptr inbounds nuw %"struct.rocksdb::ThreadData", ptr %34, i32 0, i32 0
  %36 = load i32, ptr %5, align 4, !tbaa !39
  %37 = zext i32 %36 to i64
  %38 = call noundef nonnull align 8 dereferenceable(8) ptr @_ZNSt6vectorIN7rocksdb5EntryESaIS1_EEixEm(ptr noundef nonnull align 8 dereferenceable(24) %35, i64 noundef %37) #1
  %39 = getelementptr inbounds nuw %"struct.rocksdb::Entry", ptr %38, i32 0, i32 0
  %40 = load ptr, ptr %6, align 8, !tbaa !10
  %41 = call noundef ptr @_ZNSt6atomicIPvE8exchangeES0_St12memory_order(ptr noundef nonnull align 8 dereferenceable(8) %39, ptr noundef %40, i32 noundef 2) #1
  call void @llvm.lifetime.end.p0(i64 8, ptr %7) #1
  ret ptr %41

42:                                               ; preds = %29
  %43 = load ptr, ptr %9, align 8
  %44 = load i32, ptr %10, align 4
  %45 = insertvalue { ptr, i32 } poison, ptr %43, 0
  %46 = insertvalue { ptr, i32 } %45, i32 %44, 1
  resume { ptr, i32 } %46
}